ARM GAS  C:\Users\antoi\AppData\Local\Temp\ccndUqsR.s 			page 1


   1              		.syntax unified
   2              		.cpu cortex-m3
   3              		.fpu softvfp
   4              		.eabi_attribute 20, 1
   5              		.eabi_attribute 21, 1
   6              		.eabi_attribute 23, 3
   7              		.eabi_attribute 24, 1
   8              		.eabi_attribute 25, 1
   9              		.eabi_attribute 26, 1
  10              		.eabi_attribute 30, 1
  11              		.eabi_attribute 34, 1
  12              		.eabi_attribute 18, 4
  13              		.thumb
  14              		.syntax unified
  15              		.file	"main.c"
  16              		.text
  17              	.Ltext0:
  18              		.cfi_sections	.debug_frame
  19              		.section	.text.initDino,"ax",%progbits
  20              		.align	2
  21              		.global	initDino
  22              		.thumb
  23              		.thumb_func
  24              		.type	initDino, %function
  25              	initDino:
  26              	.LFB63:
  27              		.file 1 "main.c"
   1:main.c        **** /* ========================================
   2:main.c        ****  *
   3:main.c        ****  * Copyright YOUR COMPANY, THE YEAR
   4:main.c        ****  * All Rights Reserved
   5:main.c        ****  * UNPUBLISHED, LICENSED SOFTWARE.
   6:main.c        ****  *
   7:main.c        ****  * CONFIDENTIAL AND PROPRIETARY INFORMATION
   8:main.c        ****  * WHICH IS THE PROPERTY OF your company.
   9:main.c        ****  *
  10:main.c        ****  * ========================================
  11:main.c        **** */
  12:main.c        **** #include "project.h"
  13:main.c        **** 
  14:main.c        **** #define SERVO_RAISED 2400
  15:main.c        **** #define SERVO_CLICKED 2800
  16:main.c        **** 
  17:main.c        **** int JUMP_COUNTER = 0;
  18:main.c        **** 
  19:main.c        **** void initDino(){
  28              		.loc 1 19 0
  29              		.cfi_startproc
  30              		@ args = 0, pretend = 0, frame = 0
  31              		@ frame_needed = 0, uses_anonymous_args = 0
  32 0000 08B5     		push	{r3, lr}
  33              		.cfi_def_cfa_offset 8
  34              		.cfi_offset 3, -8
  35              		.cfi_offset 14, -4
  20:main.c        ****     PWM_JUMP_Start();
  36              		.loc 1 20 0
  37 0002 FFF7FEFF 		bl	PWM_JUMP_Start
ARM GAS  C:\Users\antoi\AppData\Local\Temp\ccndUqsR.s 			page 2


  38              	.LVL0:
  21:main.c        ****     PWM_DUCK_Start();
  39              		.loc 1 21 0
  40 0006 FFF7FEFF 		bl	PWM_DUCK_Start
  41              	.LVL1:
  22:main.c        ****     ADC_Start();
  42              		.loc 1 22 0
  43 000a FFF7FEFF 		bl	ADC_Start
  44              	.LVL2:
  23:main.c        ****     LCD_Start();
  45              		.loc 1 23 0
  46 000e FFF7FEFF 		bl	LCD_Start
  47              	.LVL3:
  48 0012 08BD     		pop	{r3, pc}
  49              		.cfi_endproc
  50              	.LFE63:
  51              		.size	initDino, .-initDino
  52              		.section	.text.jumpLEDtoggle,"ax",%progbits
  53              		.align	2
  54              		.global	jumpLEDtoggle
  55              		.thumb
  56              		.thumb_func
  57              		.type	jumpLEDtoggle, %function
  58              	jumpLEDtoggle:
  59              	.LFB64:
  24:main.c        **** }
  25:main.c        **** 
  26:main.c        **** void jumpLEDtoggle(){
  60              		.loc 1 26 0
  61              		.cfi_startproc
  62              		@ args = 0, pretend = 0, frame = 0
  63              		@ frame_needed = 0, uses_anonymous_args = 0
  64 0000 08B5     		push	{r3, lr}
  65              		.cfi_def_cfa_offset 8
  66              		.cfi_offset 3, -8
  67              		.cfi_offset 14, -4
  27:main.c        ****     LED1_Write(~LED1_Read());
  68              		.loc 1 27 0
  69 0002 FFF7FEFF 		bl	LED1_Read
  70              	.LVL4:
  71 0006 C043     		mvns	r0, r0
  72 0008 C0B2     		uxtb	r0, r0
  73 000a FFF7FEFF 		bl	LED1_Write
  74              	.LVL5:
  28:main.c        ****     LED2_Write(~LED2_Read());
  75              		.loc 1 28 0
  76 000e FFF7FEFF 		bl	LED2_Read
  77              	.LVL6:
  78 0012 C043     		mvns	r0, r0
  79 0014 C0B2     		uxtb	r0, r0
  80 0016 FFF7FEFF 		bl	LED2_Write
  81              	.LVL7:
  82 001a 08BD     		pop	{r3, pc}
  83              		.cfi_endproc
  84              	.LFE64:
  85              		.size	jumpLEDtoggle, .-jumpLEDtoggle
  86              		.section	.text.duckLEDtoggle,"ax",%progbits
ARM GAS  C:\Users\antoi\AppData\Local\Temp\ccndUqsR.s 			page 3


  87              		.align	2
  88              		.global	duckLEDtoggle
  89              		.thumb
  90              		.thumb_func
  91              		.type	duckLEDtoggle, %function
  92              	duckLEDtoggle:
  93              	.LFB65:
  29:main.c        **** }
  30:main.c        **** 
  31:main.c        **** void duckLEDtoggle(){
  94              		.loc 1 31 0
  95              		.cfi_startproc
  96              		@ args = 0, pretend = 0, frame = 0
  97              		@ frame_needed = 0, uses_anonymous_args = 0
  98 0000 08B5     		push	{r3, lr}
  99              		.cfi_def_cfa_offset 8
 100              		.cfi_offset 3, -8
 101              		.cfi_offset 14, -4
  32:main.c        ****     LED3_Write(~LED3_Read());
 102              		.loc 1 32 0
 103 0002 FFF7FEFF 		bl	LED3_Read
 104              	.LVL8:
 105 0006 C043     		mvns	r0, r0
 106 0008 C0B2     		uxtb	r0, r0
 107 000a FFF7FEFF 		bl	LED3_Write
 108              	.LVL9:
  33:main.c        ****     LED4_Write(~LED4_Read());
 109              		.loc 1 33 0
 110 000e FFF7FEFF 		bl	LED4_Read
 111              	.LVL10:
 112 0012 C043     		mvns	r0, r0
 113 0014 C0B2     		uxtb	r0, r0
 114 0016 FFF7FEFF 		bl	LED4_Write
 115              	.LVL11:
 116 001a 08BD     		pop	{r3, pc}
 117              		.cfi_endproc
 118              	.LFE65:
 119              		.size	duckLEDtoggle, .-duckLEDtoggle
 120              		.section	.text.jump,"ax",%progbits
 121              		.align	2
 122              		.global	jump
 123              		.thumb
 124              		.thumb_func
 125              		.type	jump, %function
 126              	jump:
 127              	.LFB66:
  34:main.c        **** }
  35:main.c        **** 
  36:main.c        **** void jump(){
 128              		.loc 1 36 0
 129              		.cfi_startproc
 130              		@ args = 0, pretend = 0, frame = 0
 131              		@ frame_needed = 0, uses_anonymous_args = 0
 132 0000 08B5     		push	{r3, lr}
 133              		.cfi_def_cfa_offset 8
 134              		.cfi_offset 3, -8
 135              		.cfi_offset 14, -4
ARM GAS  C:\Users\antoi\AppData\Local\Temp\ccndUqsR.s 			page 4


  37:main.c        ****     jumpLEDtoggle();
 136              		.loc 1 37 0
 137 0002 FFF7FEFF 		bl	jumpLEDtoggle
 138              	.LVL12:
  38:main.c        ****     PWM_JUMP_WriteCompare(SERVO_CLICKED);
 139              		.loc 1 38 0
 140 0006 4FF42F60 		mov	r0, #2800
 141 000a FFF7FEFF 		bl	PWM_JUMP_WriteCompare
 142              	.LVL13:
  39:main.c        ****     CyDelay(100);
 143              		.loc 1 39 0
 144 000e 6420     		movs	r0, #100
 145 0010 FFF7FEFF 		bl	CyDelay
 146              	.LVL14:
  40:main.c        ****     PWM_JUMP_WriteCompare(SERVO_RAISED);
 147              		.loc 1 40 0
 148 0014 4FF41660 		mov	r0, #2400
 149 0018 FFF7FEFF 		bl	PWM_JUMP_WriteCompare
 150              	.LVL15:
  41:main.c        ****     CyDelay(100);
 151              		.loc 1 41 0
 152 001c 6420     		movs	r0, #100
 153 001e FFF7FEFF 		bl	CyDelay
 154              	.LVL16:
  42:main.c        ****     jumpLEDtoggle();
 155              		.loc 1 42 0
 156 0022 FFF7FEFF 		bl	jumpLEDtoggle
 157              	.LVL17:
  43:main.c        ****     JUMP_COUNTER++;
 158              		.loc 1 43 0
 159 0026 024A     		ldr	r2, .L9
 160 0028 1368     		ldr	r3, [r2]
 161 002a 0133     		adds	r3, r3, #1
 162 002c 1360     		str	r3, [r2]
 163 002e 08BD     		pop	{r3, pc}
 164              	.L10:
 165              		.align	2
 166              	.L9:
 167 0030 00000000 		.word	.LANCHOR0
 168              		.cfi_endproc
 169              	.LFE66:
 170              		.size	jump, .-jump
 171              		.section	.text.duck,"ax",%progbits
 172              		.align	2
 173              		.global	duck
 174              		.thumb
 175              		.thumb_func
 176              		.type	duck, %function
 177              	duck:
 178              	.LFB67:
  44:main.c        ****     
  45:main.c        **** }
  46:main.c        **** 
  47:main.c        **** void duck(){
 179              		.loc 1 47 0
 180              		.cfi_startproc
 181              		@ args = 0, pretend = 0, frame = 0
ARM GAS  C:\Users\antoi\AppData\Local\Temp\ccndUqsR.s 			page 5


 182              		@ frame_needed = 0, uses_anonymous_args = 0
 183 0000 08B5     		push	{r3, lr}
 184              		.cfi_def_cfa_offset 8
 185              		.cfi_offset 3, -8
 186              		.cfi_offset 14, -4
  48:main.c        ****     duckLEDtoggle();
 187              		.loc 1 48 0
 188 0002 FFF7FEFF 		bl	duckLEDtoggle
 189              	.LVL18:
  49:main.c        ****     PWM_DUCK_WriteCompare(SERVO_CLICKED);
 190              		.loc 1 49 0
 191 0006 4FF42F60 		mov	r0, #2800
 192 000a FFF7FEFF 		bl	PWM_DUCK_WriteCompare
 193              	.LVL19:
  50:main.c        ****     CyDelay(100);
 194              		.loc 1 50 0
 195 000e 6420     		movs	r0, #100
 196 0010 FFF7FEFF 		bl	CyDelay
 197              	.LVL20:
  51:main.c        ****     PWM_DUCK_WriteCompare(SERVO_RAISED);
 198              		.loc 1 51 0
 199 0014 4FF41660 		mov	r0, #2400
 200 0018 FFF7FEFF 		bl	PWM_DUCK_WriteCompare
 201              	.LVL21:
  52:main.c        ****     CyDelay(100);
 202              		.loc 1 52 0
 203 001c 6420     		movs	r0, #100
 204 001e FFF7FEFF 		bl	CyDelay
 205              	.LVL22:
  53:main.c        ****     duckLEDtoggle();
 206              		.loc 1 53 0
 207 0022 FFF7FEFF 		bl	duckLEDtoggle
 208              	.LVL23:
  54:main.c        ****     JUMP_COUNTER++;
 209              		.loc 1 54 0
 210 0026 024A     		ldr	r2, .L13
 211 0028 1368     		ldr	r3, [r2]
 212 002a 0133     		adds	r3, r3, #1
 213 002c 1360     		str	r3, [r2]
 214 002e 08BD     		pop	{r3, pc}
 215              	.L14:
 216              		.align	2
 217              	.L13:
 218 0030 00000000 		.word	.LANCHOR0
 219              		.cfi_endproc
 220              	.LFE67:
 221              		.size	duck, .-duck
 222              		.section	.text.sw1,"ax",%progbits
 223              		.align	2
 224              		.global	sw1
 225              		.thumb
 226              		.thumb_func
 227              		.type	sw1, %function
 228              	sw1:
 229              	.LFB68:
  55:main.c        **** }
  56:main.c        **** 
ARM GAS  C:\Users\antoi\AppData\Local\Temp\ccndUqsR.s 			page 6


  57:main.c        **** void sw1(){
 230              		.loc 1 57 0
 231              		.cfi_startproc
 232              		@ args = 0, pretend = 0, frame = 0
 233              		@ frame_needed = 0, uses_anonymous_args = 0
 234 0000 08B5     		push	{r3, lr}
 235              		.cfi_def_cfa_offset 8
 236              		.cfi_offset 3, -8
 237              		.cfi_offset 14, -4
  58:main.c        ****     jump();
 238              		.loc 1 58 0
 239 0002 FFF7FEFF 		bl	jump
 240              	.LVL24:
 241 0006 08BD     		pop	{r3, pc}
 242              		.cfi_endproc
 243              	.LFE68:
 244              		.size	sw1, .-sw1
 245              		.section	.text.sw2,"ax",%progbits
 246              		.align	2
 247              		.global	sw2
 248              		.thumb
 249              		.thumb_func
 250              		.type	sw2, %function
 251              	sw2:
 252              	.LFB69:
  59:main.c        **** }
  60:main.c        **** 
  61:main.c        **** void sw2(){
 253              		.loc 1 61 0
 254              		.cfi_startproc
 255              		@ args = 0, pretend = 0, frame = 0
 256              		@ frame_needed = 0, uses_anonymous_args = 0
 257 0000 08B5     		push	{r3, lr}
 258              		.cfi_def_cfa_offset 8
 259              		.cfi_offset 3, -8
 260              		.cfi_offset 14, -4
  62:main.c        ****     duck();
 261              		.loc 1 62 0
 262 0002 FFF7FEFF 		bl	duck
 263              	.LVL25:
 264 0006 08BD     		pop	{r3, pc}
 265              		.cfi_endproc
 266              	.LFE69:
 267              		.size	sw2, .-sw2
 268              		.section	.text.sw3,"ax",%progbits
 269              		.align	2
 270              		.global	sw3
 271              		.thumb
 272              		.thumb_func
 273              		.type	sw3, %function
 274              	sw3:
 275              	.LFB70:
  63:main.c        **** }
  64:main.c        **** 
  65:main.c        **** void sw3(){
 276              		.loc 1 65 0
 277              		.cfi_startproc
ARM GAS  C:\Users\antoi\AppData\Local\Temp\ccndUqsR.s 			page 7


 278              		@ args = 0, pretend = 0, frame = 0
 279              		@ frame_needed = 0, uses_anonymous_args = 0
 280              		@ link register save eliminated.
  66:main.c        ****     JUMP_COUNTER = 0;
 281              		.loc 1 66 0
 282 0000 0022     		movs	r2, #0
 283 0002 014B     		ldr	r3, .L20
 284 0004 1A60     		str	r2, [r3]
 285 0006 7047     		bx	lr
 286              	.L21:
 287              		.align	2
 288              	.L20:
 289 0008 00000000 		.word	.LANCHOR0
 290              		.cfi_endproc
 291              	.LFE70:
 292              		.size	sw3, .-sw3
 293              		.section	.text.main,"ax",%progbits
 294              		.align	2
 295              		.global	main
 296              		.thumb
 297              		.thumb_func
 298              		.type	main, %function
 299              	main:
 300              	.LFB71:
  67:main.c        **** }
  68:main.c        **** 
  69:main.c        **** int main(void)
  70:main.c        **** {
 301              		.loc 1 70 0
 302              		.cfi_startproc
 303              		@ args = 0, pretend = 0, frame = 0
 304              		@ frame_needed = 0, uses_anonymous_args = 0
 305 0000 10B5     		push	{r4, lr}
 306              		.cfi_def_cfa_offset 8
 307              		.cfi_offset 4, -8
 308              		.cfi_offset 14, -4
  71:main.c        ****     CyGlobalIntEnable; /* Enable global interrupts. */
 309              		.loc 1 71 0
 310              		.syntax unified
 311              	@ 71 "main.c" 1
 312 0002 62B6     		CPSIE   i
 313              	@ 0 "" 2
  72:main.c        **** 
  73:main.c        ****     initDino();
 314              		.loc 1 73 0
 315              		.thumb
 316              		.syntax unified
 317 0004 FFF7FEFF 		bl	initDino
 318              	.LVL26:
 319              	.L25:
 320              	.LBB2:
  74:main.c        ****     
  75:main.c        ****     for(;;)
  76:main.c        ****     {
  77:main.c        ****         if(SW1_Read()){
 321              		.loc 1 77 0
 322 0008 FFF7FEFF 		bl	SW1_Read
ARM GAS  C:\Users\antoi\AppData\Local\Temp\ccndUqsR.s 			page 8


 323              	.LVL27:
 324 000c 08B1     		cbz	r0, .L23
  78:main.c        ****             sw1();
 325              		.loc 1 78 0
 326 000e FFF7FEFF 		bl	sw1
 327              	.LVL28:
 328              	.L23:
  79:main.c        ****         }
  80:main.c        ****         if(SW2_Read()){
 329              		.loc 1 80 0
 330 0012 FFF7FEFF 		bl	SW2_Read
 331              	.LVL29:
 332 0016 08B1     		cbz	r0, .L24
  81:main.c        ****             sw2();
 333              		.loc 1 81 0
 334 0018 FFF7FEFF 		bl	sw2
 335              	.LVL30:
 336              	.L24:
  82:main.c        ****         }
  83:main.c        ****         uint16_t i = ADC_Read16();
 337              		.loc 1 83 0
 338 001c FFF7FEFF 		bl	ADC_Read16
 339              	.LVL31:
 340 0020 84B2     		uxth	r4, r0
 341              	.LVL32:
  84:main.c        ****         LCD_ClearDisplay();
 342              		.loc 1 84 0
 343 0022 0120     		movs	r0, #1
 344 0024 FFF7FEFF 		bl	LCD_WriteControl
 345              	.LVL33:
  85:main.c        ****         LCD_Position(0,0);
 346              		.loc 1 85 0
 347 0028 0021     		movs	r1, #0
 348 002a 0846     		mov	r0, r1
 349 002c FFF7FEFF 		bl	LCD_Position
 350              	.LVL34:
  86:main.c        ****         LCD_PrintNumber(i);
 351              		.loc 1 86 0
 352 0030 2046     		mov	r0, r4
 353 0032 FFF7FEFF 		bl	LCD_PrintU32Number
 354              	.LVL35:
  87:main.c        ****         if(i>=15000){
 355              		.loc 1 87 0
 356 0036 43F69723 		movw	r3, #14999
 357 003a 9C42     		cmp	r4, r3
 358 003c E4D9     		bls	.L25
  88:main.c        ****            
  89:main.c        ****             jump();
 359              		.loc 1 89 0
 360 003e FFF7FEFF 		bl	jump
 361              	.LVL36:
 362 0042 E1E7     		b	.L25
 363              	.LBE2:
 364              		.cfi_endproc
 365              	.LFE71:
 366              		.size	main, .-main
 367              		.global	JUMP_COUNTER
ARM GAS  C:\Users\antoi\AppData\Local\Temp\ccndUqsR.s 			page 9


 368              		.bss
 369              		.align	2
 370              		.set	.LANCHOR0,. + 0
 371              		.type	JUMP_COUNTER, %object
 372              		.size	JUMP_COUNTER, 4
 373              	JUMP_COUNTER:
 374 0000 00000000 		.space	4
 375              		.text
 376              	.Letext0:
 377              		.file 2 "c:\\program files (x86)\\cypress\\psoc creator\\4.4\\psoc creator\\import\\gnu\\arm\\5.4.
 378              		.file 3 "c:\\program files (x86)\\cypress\\psoc creator\\4.4\\psoc creator\\import\\gnu\\arm\\5.4.
 379              		.file 4 "Generated_Source\\PSoC5/cytypes.h"
 380              		.file 5 "Generated_Source\\PSoC5/core_cm3.h"
 381              		.file 6 "Generated_Source\\PSoC5/PWM_JUMP.h"
 382              		.file 7 "Generated_Source\\PSoC5/PWM_DUCK.h"
 383              		.file 8 "Generated_Source\\PSoC5/ADC.h"
 384              		.file 9 "Generated_Source\\PSoC5/LCD.h"
 385              		.file 10 "Generated_Source\\PSoC5/LED1.h"
 386              		.file 11 "Generated_Source\\PSoC5/LED2.h"
 387              		.file 12 "Generated_Source\\PSoC5/LED3.h"
 388              		.file 13 "Generated_Source\\PSoC5/LED4.h"
 389              		.file 14 "Generated_Source\\PSoC5/CyLib.h"
 390              		.file 15 "Generated_Source\\PSoC5/SW1.h"
 391              		.file 16 "Generated_Source\\PSoC5/SW2.h"